; Function Attrs: mustprogress nounwind uwtable
define dso_local noundef ptr @_ZNK4llvm27TargetLoweringObjectFileELF22getSectionForJumpTableERKNS_8FunctionERKNS_13TargetMachineE(ptr nocapture noundef nonnull align 8 dereferenceable(1026) %0, ptr noundef nonnull align 8 dereferenceable(136) %1, ptr noundef nonnull align 8 dereferenceable(1232) %2) unnamed_addr #0 align 2 {
  %4 = getelementptr inbounds nuw i8, ptr %1, i64 48
  %5 = load ptr, ptr %4, align 8
  %6 = getelementptr inbounds i8, ptr %2, i64 892
  %7 = load i32, ptr %6, align 4
  %8 = and i32 %7, 4
  %9 = icmp ne i32 %8, 0
  %10 = icmp ne ptr %5, null
  %11 = or i1 %10, %9
  br i1 %11, label %15, label %12

12:                                               ; preds = %3
  %13 = getelementptr inbounds nuw i8, ptr %0, i64 48
  %14 = load ptr, ptr %13, align 8
  br label %22

15:                                               ; preds = %3
  %16 = getelementptr inbounds nuw i8, ptr %0, i64 904
  %17 = load ptr, ptr %16, align 8
  %18 = getelementptr inbounds nuw i8, ptr %0, i64 912
  %19 = load ptr, ptr %18, align 8
  %20 = getelementptr inbounds nuw i8, ptr %0, i64 972
  %21 = tail call fastcc noundef ptr @_ZL25selectELFSectionForGlobalRN4llvm9MCContextEPKNS_12GlobalObjectENS_11SectionKindERNS_7ManglerERKNS_13TargetMachineEbjPjPKNS_11MCSymbolELFE(ptr noundef nonnull align 8 dereferenceable(2432) %17, ptr noundef nonnull %1, i32 4, ptr noundef nonnull align 8 dereferenceable(24) %19, ptr noundef nonnull align 8 dereferenceable(1232) %2, i1 noundef zeroext true, i32 noundef 2, ptr noundef nonnull %20, ptr noundef null)
  br label %22

22:                                               ; preds = %15, %12
  %.0 = phi ptr [ %21, %15 ], [ %14, %12 ]
  ret ptr %.0
}